
build/bl1.elf:     file format elf64-littleriscv


Disassembly of section .text:

0000000040000200 <bl1main>:
    40000200:	ff010113          	addi	sp,sp,-16
    40000204:	00000517          	auipc	a0,0x0
    40000208:	21c50513          	addi	a0,a0,540 # 40000420 <_hang+0x8>
    4000020c:	00113423          	sd	ra,8(sp)
    40000210:	084000ef          	jal	ra,40000294 <_dprintf>
    40000214:	020007b7          	lui	a5,0x2000
    40000218:	00100713          	li	a4,1
    4000021c:	00e7a223          	sw	a4,4(a5) # 2000004 <bl1main-0x3e0001fc>
    40000220:	0000006f          	j	40000220 <bl1main+0x20>

0000000040000224 <kputc>:
    40000224:	20a007b7          	lui	a5,0x20a00
    40000228:	00a78023          	sb	a0,0(a5) # 20a00000 <bl1main-0x1f600200>
    4000022c:	00008067          	ret

0000000040000230 <_kputs>:
    40000230:	00054783          	lbu	a5,0(a0)
    40000234:	02078463          	beqz	a5,4000025c <_kputs+0x2c>
    40000238:	20a00737          	lui	a4,0x20a00
    4000023c:	00f70023          	sb	a5,0(a4) # 20a00000 <bl1main-0x1f600200>
    40000240:	08050693          	addi	a3,a0,128
    40000244:	00c0006f          	j	40000250 <_kputs+0x20>
    40000248:	00f70023          	sb	a5,0(a4)
    4000024c:	00a68863          	beq	a3,a0,4000025c <_kputs+0x2c>
    40000250:	00150513          	addi	a0,a0,1
    40000254:	00054783          	lbu	a5,0(a0)
    40000258:	fe0798e3          	bnez	a5,40000248 <_kputs+0x18>
    4000025c:	00008067          	ret

0000000040000260 <kputs>:
    40000260:	00054783          	lbu	a5,0(a0)
    40000264:	00078c63          	beqz	a5,4000027c <kputs+0x1c>
    40000268:	20a00737          	lui	a4,0x20a00
    4000026c:	00f70023          	sb	a5,0(a4) # 20a00000 <bl1main-0x1f600200>
    40000270:	00150513          	addi	a0,a0,1
    40000274:	00054783          	lbu	a5,0(a0)
    40000278:	fe079ae3          	bnez	a5,4000026c <kputs+0xc>
    4000027c:	20a007b7          	lui	a5,0x20a00
    40000280:	00d00713          	li	a4,13
    40000284:	00e78023          	sb	a4,0(a5) # 20a00000 <bl1main-0x1f600200>
    40000288:	00a00713          	li	a4,10
    4000028c:	00e78023          	sb	a4,0(a5)
    40000290:	00008067          	ret

0000000040000294 <_dprintf>:
    40000294:	fb010113          	addi	sp,sp,-80
    40000298:	02f13c23          	sd	a5,56(sp)
    4000029c:	01810793          	addi	a5,sp,24
    400002a0:	00b13c23          	sd	a1,24(sp)
    400002a4:	02c13023          	sd	a2,32(sp)
    400002a8:	02d13423          	sd	a3,40(sp)
    400002ac:	02e13823          	sd	a4,48(sp)
    400002b0:	05013023          	sd	a6,64(sp)
    400002b4:	05113423          	sd	a7,72(sp)
    400002b8:	00f13423          	sd	a5,8(sp)
    400002bc:	00000593          	li	a1,0
    400002c0:	00000613          	li	a2,0
    400002c4:	00000713          	li	a4,0
    400002c8:	02500313          	li	t1,37
    400002cc:	20a006b7          	lui	a3,0x20a00
    400002d0:	01500893          	li	a7,21
    400002d4:	00000817          	auipc	a6,0x0
    400002d8:	15c80813          	addi	a6,a6,348 # 40000430 <_hang+0x18>
    400002dc:	00900e13          	li	t3,9
    400002e0:	00150513          	addi	a0,a0,1
    400002e4:	fff54783          	lbu	a5,-1(a0)
    400002e8:	02078c63          	beqz	a5,40000320 <_dprintf+0x8c>
    400002ec:	08070463          	beqz	a4,40000374 <_dprintf+0xe0>
    400002f0:	f9d7879b          	addiw	a5,a5,-99
    400002f4:	0ff7f793          	andi	a5,a5,255
    400002f8:	06f8e663          	bltu	a7,a5,40000364 <_dprintf+0xd0>
    400002fc:	00279793          	slli	a5,a5,0x2
    40000300:	010787b3          	add	a5,a5,a6
    40000304:	0007a783          	lw	a5,0(a5)
    40000308:	010787b3          	add	a5,a5,a6
    4000030c:	00078067          	jr	a5
    40000310:	00150513          	addi	a0,a0,1
    40000314:	fff54783          	lbu	a5,-1(a0)
    40000318:	00070613          	mv	a2,a4
    4000031c:	fc0798e3          	bnez	a5,400002ec <_dprintf+0x58>
    40000320:	05010113          	addi	sp,sp,80
    40000324:	00008067          	ret
    40000328:	00813783          	ld	a5,8(sp)
    4000032c:	00878713          	addi	a4,a5,8
    40000330:	00e13423          	sd	a4,8(sp)
    40000334:	0c060463          	beqz	a2,400003fc <_dprintf+0x168>
    40000338:	0007be83          	ld	t4,0(a5)
    4000033c:	03c00713          	li	a4,60
    40000340:	00eed7b3          	srl	a5,t4,a4
    40000344:	00f7f793          	andi	a5,a5,15
    40000348:	0ff7f593          	andi	a1,a5,255
    4000034c:	05758613          	addi	a2,a1,87
    40000350:	00fe4463          	blt	t3,a5,40000358 <_dprintf+0xc4>
    40000354:	03058613          	addi	a2,a1,48
    40000358:	00c68023          	sb	a2,0(a3) # 20a00000 <bl1main-0x1f600200>
    4000035c:	ffc70713          	addi	a4,a4,-4
    40000360:	fe0750e3          	bgez	a4,40000340 <_dprintf+0xac>
    40000364:	00000593          	li	a1,0
    40000368:	00000613          	li	a2,0
    4000036c:	00000713          	li	a4,0
    40000370:	f71ff06f          	j	400002e0 <_dprintf+0x4c>
    40000374:	00678663          	beq	a5,t1,40000380 <_dprintf+0xec>
    40000378:	00f68023          	sb	a5,0(a3)
    4000037c:	f65ff06f          	j	400002e0 <_dprintf+0x4c>
    40000380:	00100713          	li	a4,1
    40000384:	f5dff06f          	j	400002e0 <_dprintf+0x4c>
    40000388:	00813703          	ld	a4,8(sp)
    4000038c:	00073783          	ld	a5,0(a4)
    40000390:	00870713          	addi	a4,a4,8
    40000394:	00e13423          	sd	a4,8(sp)
    40000398:	0007c703          	lbu	a4,0(a5)
    4000039c:	fc0704e3          	beqz	a4,40000364 <_dprintf+0xd0>
    400003a0:	00e68023          	sb	a4,0(a3)
    400003a4:	08078613          	addi	a2,a5,128
    400003a8:	00c0006f          	j	400003b4 <_dprintf+0x120>
    400003ac:	00e68023          	sb	a4,0(a3)
    400003b0:	fac78ae3          	beq	a5,a2,40000364 <_dprintf+0xd0>
    400003b4:	00178793          	addi	a5,a5,1
    400003b8:	0007c703          	lbu	a4,0(a5)
    400003bc:	fe0718e3          	bnez	a4,400003ac <_dprintf+0x118>
    400003c0:	00000593          	li	a1,0
    400003c4:	00000613          	li	a2,0
    400003c8:	00000713          	li	a4,0
    400003cc:	f15ff06f          	j	400002e0 <_dprintf+0x4c>
    400003d0:	00070593          	mv	a1,a4
    400003d4:	f0dff06f          	j	400002e0 <_dprintf+0x4c>
    400003d8:	00813783          	ld	a5,8(sp)
    400003dc:	00000593          	li	a1,0
    400003e0:	00000613          	li	a2,0
    400003e4:	0007c703          	lbu	a4,0(a5)
    400003e8:	00878793          	addi	a5,a5,8
    400003ec:	00f13423          	sd	a5,8(sp)
    400003f0:	00e68023          	sb	a4,0(a3)
    400003f4:	00000713          	li	a4,0
    400003f8:	ee9ff06f          	j	400002e0 <_dprintf+0x4c>
    400003fc:	0007ee83          	lwu	t4,0(a5)
    40000400:	00400713          	li	a4,4
    40000404:	f2059ee3          	bnez	a1,40000340 <_dprintf+0xac>
    40000408:	01c00713          	li	a4,28
    4000040c:	f35ff06f          	j	40000340 <_dprintf+0xac>

Disassembly of section .text.start:

0000000040000410 <bl1start>:
    40000410:	df1ff0ef          	jal	ra,40000200 <bl1main>

0000000040000414 <stop_and_go>:
    40000414:	0000006f          	j	40000414 <stop_and_go>

Disassembly of section .text.hang:

0000000040000418 <_hang>:
    40000418:	f1402573          	csrr	a0,mhartid

Disassembly of section .rodata:

0000000040000420 <__bss_base-0x68>:
    40000420:	4c42                	lw	s8,16(sp)
    40000422:	2d31                	addiw	s10,s10,12
    40000424:	4554                	lw	a3,12(a0)
    40000426:	47205453          	0x47205453
    4000042a:	32646f6f          	jal	t5,40046750 <__bss_base+0x462c8>
    4000042e:	000a                	0xa
    40000430:	ffa8                	sd	a0,120(a5)
    40000432:	ffff                	0xffff
    40000434:	ff34                	sd	a3,120(a4)
    40000436:	ffff                	0xffff
    40000438:	ff34                	sd	a3,120(a4)
    4000043a:	ffff                	0xffff
    4000043c:	ff34                	sd	a3,120(a4)
    4000043e:	ffff                	0xffff
    40000440:	ff34                	sd	a3,120(a4)
    40000442:	ffff                	0xffff
    40000444:	ffa0                	sd	s0,120(a5)
    40000446:	ffff                	0xffff
    40000448:	ff34                	sd	a3,120(a4)
    4000044a:	ffff                	0xffff
    4000044c:	ff34                	sd	a3,120(a4)
    4000044e:	ffff                	0xffff
    40000450:	ff34                	sd	a3,120(a4)
    40000452:	ffff                	0xffff
    40000454:	fee0                	sd	s0,248(a3)
    40000456:	ffff                	0xffff
    40000458:	ff34                	sd	a3,120(a4)
    4000045a:	ffff                	0xffff
    4000045c:	ff34                	sd	a3,120(a4)
    4000045e:	ffff                	0xffff
    40000460:	ff34                	sd	a3,120(a4)
    40000462:	ffff                	0xffff
    40000464:	ff34                	sd	a3,120(a4)
    40000466:	ffff                	0xffff
    40000468:	ff34                	sd	a3,120(a4)
    4000046a:	ffff                	0xffff
    4000046c:	ff34                	sd	a3,120(a4)
    4000046e:	ffff                	0xffff
    40000470:	ff58                	sd	a4,184(a4)
    40000472:	ffff                	0xffff
    40000474:	ff34                	sd	a3,120(a4)
    40000476:	ffff                	0xffff
    40000478:	ff34                	sd	a3,120(a4)
    4000047a:	ffff                	0xffff
    4000047c:	ff34                	sd	a3,120(a4)
    4000047e:	ffff                	0xffff
    40000480:	ff34                	sd	a3,120(a4)
    40000482:	ffff                	0xffff
    40000484:	fef8                	sd	a4,248(a3)
    40000486:	ffff                	0xffff

Disassembly of section .comment:

0000000000000000 <.comment>:
   0:	3a434347          	fmsub.d	ft6,ft6,ft4,ft7,rmm
   4:	2820                	fld	fs0,80(s0)
   6:	29554e47          	fmsub.s	ft8,fa0,fs5,ft5,rmm
   a:	3720                	fld	fs0,104(a4)
   c:	322e                	fld	ft4,232(sp)
   e:	302e                	fld	ft0,232(sp)
	...
