
bl1.elf:     file format elf64-littleriscv


Disassembly of section .text:

0000000040000200 <bl1main>:
    40000200:	ff010113          	addi	sp,sp,-16
    40000204:	00000517          	auipc	a0,0x0
    40000208:	62c50513          	addi	a0,a0,1580 # 40000830 <_hang+0x10>
    4000020c:	00113423          	sd	ra,8(sp)
    40000210:	5b4000ef          	jal	ra,400007c4 <_dprintf>
    40000214:	556677b7          	lui	a5,0x55667
    40000218:	79978793          	addi	a5,a5,1945 # 55667799 <__bss_base+0x15666f51>
    4000021c:	34179073          	csrw	mepc,a5
    40000220:	0000006f          	j	40000220 <bl1main+0x20>

0000000040000224 <DebugPutch>:
    40000224:	20880737          	lui	a4,0x20880
    40000228:	07c72783          	lw	a5,124(a4) # 2088007c <bl1main-0x1f780184>
    4000022c:	0027f793          	andi	a5,a5,2
    40000230:	fe078ce3          	beqz	a5,40000228 <DebugPutch+0x4>
    40000234:	0005051b          	sext.w	a0,a0
    40000238:	00a72023          	sw	a0,0(a4)
    4000023c:	00008067          	ret

0000000040000240 <DebugIsBusy>:
    40000240:	208807b7          	lui	a5,0x20880
    40000244:	07c7a503          	lw	a0,124(a5) # 2088007c <bl1main-0x1f780184>
    40000248:	00557513          	andi	a0,a0,5
    4000024c:	ffc50513          	addi	a0,a0,-4
    40000250:	00a03533          	snez	a0,a0
    40000254:	00008067          	ret

0000000040000258 <printchar>:
    40000258:	0ff5f593          	andi	a1,a1,255
    4000025c:	00050e63          	beqz	a0,40000278 <printchar+0x20>
    40000260:	00053783          	ld	a5,0(a0)
    40000264:	00b78023          	sb	a1,0(a5)
    40000268:	00053783          	ld	a5,0(a0)
    4000026c:	00178793          	addi	a5,a5,1
    40000270:	00f53023          	sd	a5,0(a0)
    40000274:	00008067          	ret
    40000278:	00058513          	mv	a0,a1
    4000027c:	fa9ff06f          	j	40000224 <DebugPutch>

0000000040000280 <prints>:
    40000280:	fc010113          	addi	sp,sp,-64
    40000284:	02813823          	sd	s0,48(sp)
    40000288:	03213023          	sd	s2,32(sp)
    4000028c:	01313c23          	sd	s3,24(sp)
    40000290:	02113c23          	sd	ra,56(sp)
    40000294:	02913423          	sd	s1,40(sp)
    40000298:	01413823          	sd	s4,16(sp)
    4000029c:	01513423          	sd	s5,8(sp)
    400002a0:	00050413          	mv	s0,a0
    400002a4:	00058913          	mv	s2,a1
    400002a8:	00060993          	mv	s3,a2
    400002ac:	0005c503          	lbu	a0,0(a1)
    400002b0:	10c05c63          	blez	a2,400003c8 <prints+0x148>
    400002b4:	14050c63          	beqz	a0,4000040c <prints+0x18c>
    400002b8:	00058793          	mv	a5,a1
    400002bc:	00000493          	li	s1,0
    400002c0:	00178793          	addi	a5,a5,1
    400002c4:	0007c703          	lbu	a4,0(a5)
    400002c8:	0014849b          	addiw	s1,s1,1
    400002cc:	fe071ae3          	bnez	a4,400002c0 <prints+0x40>
    400002d0:	0934ce63          	blt	s1,s3,4000036c <prints+0xec>
    400002d4:	0026f693          	andi	a3,a3,2
    400002d8:	0006849b          	sext.w	s1,a3
    400002dc:	10048463          	beqz	s1,400003e4 <prints+0x164>
    400002e0:	03000a13          	li	s4,48
    400002e4:	00000993          	li	s3,0
    400002e8:	00000493          	li	s1,0
    400002ec:	0c040a63          	beqz	s0,400003c0 <prints+0x140>
    400002f0:	00043783          	ld	a5,0(s0)
    400002f4:	00a78023          	sb	a0,0(a5)
    400002f8:	00043783          	ld	a5,0(s0)
    400002fc:	00178793          	addi	a5,a5,1
    40000300:	00f43023          	sd	a5,0(s0)
    40000304:	00190913          	addi	s2,s2,1
    40000308:	00094503          	lbu	a0,0(s2)
    4000030c:	0014849b          	addiw	s1,s1,1
    40000310:	fc051ee3          	bnez	a0,400002ec <prints+0x6c>
    40000314:	03305863          	blez	s3,40000344 <prints+0xc4>
    40000318:	0ffa7a13          	andi	s4,s4,255
    4000031c:	00098913          	mv	s2,s3
    40000320:	0a040c63          	beqz	s0,400003d8 <prints+0x158>
    40000324:	00043783          	ld	a5,0(s0)
    40000328:	01478023          	sb	s4,0(a5)
    4000032c:	00043783          	ld	a5,0(s0)
    40000330:	00178793          	addi	a5,a5,1
    40000334:	00f43023          	sd	a5,0(s0)
    40000338:	fff9091b          	addiw	s2,s2,-1
    4000033c:	fe0912e3          	bnez	s2,40000320 <prints+0xa0>
    40000340:	013484bb          	addw	s1,s1,s3
    40000344:	03813083          	ld	ra,56(sp)
    40000348:	03013403          	ld	s0,48(sp)
    4000034c:	00048513          	mv	a0,s1
    40000350:	02013903          	ld	s2,32(sp)
    40000354:	02813483          	ld	s1,40(sp)
    40000358:	01813983          	ld	s3,24(sp)
    4000035c:	01013a03          	ld	s4,16(sp)
    40000360:	00813a83          	ld	s5,8(sp)
    40000364:	04010113          	addi	sp,sp,64
    40000368:	00008067          	ret
    4000036c:	409984bb          	subw	s1,s3,s1
    40000370:	0026f793          	andi	a5,a3,2
    40000374:	02000a13          	li	s4,32
    40000378:	00078463          	beqz	a5,40000380 <prints+0x100>
    4000037c:	03000a13          	li	s4,48
    40000380:	0016f693          	andi	a3,a3,1
    40000384:	06069663          	bnez	a3,400003f0 <prints+0x170>
    40000388:	08905663          	blez	s1,40000414 <prints+0x194>
    4000038c:	0ffa7a93          	andi	s5,s4,255
    40000390:	00048993          	mv	s3,s1
    40000394:	06040663          	beqz	s0,40000400 <prints+0x180>
    40000398:	00043783          	ld	a5,0(s0)
    4000039c:	01578023          	sb	s5,0(a5)
    400003a0:	00043783          	ld	a5,0(s0)
    400003a4:	00178793          	addi	a5,a5,1
    400003a8:	00f43023          	sd	a5,0(s0)
    400003ac:	fff9899b          	addiw	s3,s3,-1
    400003b0:	fe0992e3          	bnez	s3,40000394 <prints+0x114>
    400003b4:	00094503          	lbu	a0,0(s2)
    400003b8:	f80506e3          	beqz	a0,40000344 <prints+0xc4>
    400003bc:	f2041ae3          	bnez	s0,400002f0 <prints+0x70>
    400003c0:	e65ff0ef          	jal	ra,40000224 <DebugPutch>
    400003c4:	f41ff06f          	j	40000304 <prints+0x84>
    400003c8:	02000a13          	li	s4,32
    400003cc:	00000493          	li	s1,0
    400003d0:	fe0516e3          	bnez	a0,400003bc <prints+0x13c>
    400003d4:	f71ff06f          	j	40000344 <prints+0xc4>
    400003d8:	000a0513          	mv	a0,s4
    400003dc:	e49ff0ef          	jal	ra,40000224 <DebugPutch>
    400003e0:	f59ff06f          	j	40000338 <prints+0xb8>
    400003e4:	00000993          	li	s3,0
    400003e8:	02000a13          	li	s4,32
    400003ec:	f01ff06f          	j	400002ec <prints+0x6c>
    400003f0:	00048993          	mv	s3,s1
    400003f4:	00000493          	li	s1,0
    400003f8:	ee051ae3          	bnez	a0,400002ec <prints+0x6c>
    400003fc:	f19ff06f          	j	40000314 <prints+0x94>
    40000400:	000a8513          	mv	a0,s5
    40000404:	e21ff0ef          	jal	ra,40000224 <DebugPutch>
    40000408:	fa5ff06f          	j	400003ac <prints+0x12c>
    4000040c:	00060493          	mv	s1,a2
    40000410:	f61ff06f          	j	40000370 <prints+0xf0>
    40000414:	00048993          	mv	s3,s1
    40000418:	00000493          	li	s1,0
    4000041c:	fa0510e3          	bnez	a0,400003bc <prints+0x13c>
    40000420:	f25ff06f          	j	40000344 <prints+0xc4>

0000000040000424 <printi>:
    40000424:	fb010113          	addi	sp,sp,-80
    40000428:	04113423          	sd	ra,72(sp)
    4000042c:	04813023          	sd	s0,64(sp)
    40000430:	02913c23          	sd	s1,56(sp)
    40000434:	0c058663          	beqz	a1,40000500 <printi+0xdc>
    40000438:	00050493          	mv	s1,a0
    4000043c:	00068413          	mv	s0,a3
    40000440:	0005831b          	sext.w	t1,a1
    40000444:	06069863          	bnez	a3,400004b4 <printi+0x90>
    40000448:	020105a3          	sb	zero,43(sp)
    4000044c:	00060e1b          	sext.w	t3,a2
    40000450:	02b10593          	addi	a1,sp,43
    40000454:	00900513          	li	a0,9
    40000458:	fc68081b          	addiw	a6,a6,-58
    4000045c:	03c378bb          	remuw	a7,t1,t3
    40000460:	fff58593          	addi	a1,a1,-1
    40000464:	03c3533b          	divuw	t1,t1,t3
    40000468:	01155463          	ble	a7,a0,40000470 <printi+0x4c>
    4000046c:	011808bb          	addw	a7,a6,a7
    40000470:	0308889b          	addiw	a7,a7,48
    40000474:	01158023          	sb	a7,0(a1)
    40000478:	fe0312e3          	bnez	t1,4000045c <printi+0x38>
    4000047c:	04040e63          	beqz	s0,400004d8 <printi+0xb4>
    40000480:	04070463          	beqz	a4,400004c8 <printi+0xa4>
    40000484:	0027f693          	andi	a3,a5,2
    40000488:	04068063          	beqz	a3,400004c8 <printi+0xa4>
    4000048c:	0a048a63          	beqz	s1,40000540 <printi+0x11c>
    40000490:	0004b683          	ld	a3,0(s1)
    40000494:	02d00613          	li	a2,45
    40000498:	00c68023          	sb	a2,0(a3)
    4000049c:	0004b683          	ld	a3,0(s1)
    400004a0:	00168693          	addi	a3,a3,1
    400004a4:	00d4b023          	sd	a3,0(s1)
    400004a8:	fff7071b          	addiw	a4,a4,-1
    400004ac:	00100413          	li	s0,1
    400004b0:	0280006f          	j	400004d8 <printi+0xb4>
    400004b4:	00a00693          	li	a3,10
    400004b8:	06d60a63          	beq	a2,a3,4000052c <printi+0x108>
    400004bc:	020105a3          	sb	zero,43(sp)
    400004c0:	00000413          	li	s0,0
    400004c4:	f89ff06f          	j	4000044c <printi+0x28>
    400004c8:	02d00693          	li	a3,45
    400004cc:	fed58fa3          	sb	a3,-1(a1)
    400004d0:	00000413          	li	s0,0
    400004d4:	fff58593          	addi	a1,a1,-1
    400004d8:	00048513          	mv	a0,s1
    400004dc:	00078693          	mv	a3,a5
    400004e0:	00070613          	mv	a2,a4
    400004e4:	d9dff0ef          	jal	ra,40000280 <prints>
    400004e8:	0085053b          	addw	a0,a0,s0
    400004ec:	04813083          	ld	ra,72(sp)
    400004f0:	04013403          	ld	s0,64(sp)
    400004f4:	03813483          	ld	s1,56(sp)
    400004f8:	05010113          	addi	sp,sp,80
    400004fc:	00008067          	ret
    40000500:	00078693          	mv	a3,a5
    40000504:	02010593          	addi	a1,sp,32
    40000508:	03000793          	li	a5,48
    4000050c:	00070613          	mv	a2,a4
    40000510:	02f11023          	sh	a5,32(sp)
    40000514:	d6dff0ef          	jal	ra,40000280 <prints>
    40000518:	04813083          	ld	ra,72(sp)
    4000051c:	04013403          	ld	s0,64(sp)
    40000520:	03813483          	ld	s1,56(sp)
    40000524:	05010113          	addi	sp,sp,80
    40000528:	00008067          	ret
    4000052c:	f805d8e3          	bgez	a1,400004bc <printi+0x98>
    40000530:	40b0033b          	negw	t1,a1
    40000534:	020105a3          	sb	zero,43(sp)
    40000538:	00100413          	li	s0,1
    4000053c:	f11ff06f          	j	4000044c <printi+0x28>
    40000540:	02d00513          	li	a0,45
    40000544:	00f13c23          	sd	a5,24(sp)
    40000548:	00e13823          	sd	a4,16(sp)
    4000054c:	00b13423          	sd	a1,8(sp)
    40000550:	cd5ff0ef          	jal	ra,40000224 <DebugPutch>
    40000554:	01813783          	ld	a5,24(sp)
    40000558:	01013703          	ld	a4,16(sp)
    4000055c:	00813583          	ld	a1,8(sp)
    40000560:	f49ff06f          	j	400004a8 <printi+0x84>

0000000040000564 <print>:
    40000564:	f9010113          	addi	sp,sp,-112
    40000568:	05213823          	sd	s2,80(sp)
    4000056c:	06113423          	sd	ra,104(sp)
    40000570:	06813023          	sd	s0,96(sp)
    40000574:	04913c23          	sd	s1,88(sp)
    40000578:	05313423          	sd	s3,72(sp)
    4000057c:	05413023          	sd	s4,64(sp)
    40000580:	03513c23          	sd	s5,56(sp)
    40000584:	03613823          	sd	s6,48(sp)
    40000588:	03713423          	sd	s7,40(sp)
    4000058c:	03813023          	sd	s8,32(sp)
    40000590:	01913c23          	sd	s9,24(sp)
    40000594:	01a13823          	sd	s10,16(sp)
    40000598:	0005c783          	lbu	a5,0(a1)
    4000059c:	00050913          	mv	s2,a0
    400005a0:	20078e63          	beqz	a5,400007bc <print+0x258>
    400005a4:	00058493          	mv	s1,a1
    400005a8:	00060993          	mv	s3,a2
    400005ac:	00000b93          	li	s7,0
    400005b0:	02500c13          	li	s8,37
    400005b4:	02d00a93          	li	s5,45
    400005b8:	03000d13          	li	s10,48
    400005bc:	00900c93          	li	s9,9
    400005c0:	07300a13          	li	s4,115
    400005c4:	00000b17          	auipc	s6,0x0
    400005c8:	27cb0b13          	addi	s6,s6,636 # 40000840 <_hang+0x20>
    400005cc:	00148413          	addi	s0,s1,1
    400005d0:	09878063          	beq	a5,s8,40000650 <print+0xec>
    400005d4:	00040793          	mv	a5,s0
    400005d8:	0004c503          	lbu	a0,0(s1)
    400005dc:	00048413          	mv	s0,s1
    400005e0:	00078493          	mv	s1,a5
    400005e4:	08090063          	beqz	s2,40000664 <print+0x100>
    400005e8:	00093783          	ld	a5,0(s2)
    400005ec:	00a78023          	sb	a0,0(a5)
    400005f0:	00093783          	ld	a5,0(s2)
    400005f4:	00178793          	addi	a5,a5,1
    400005f8:	00f93023          	sd	a5,0(s2)
    400005fc:	001b8b9b          	addiw	s7,s7,1
    40000600:	00144783          	lbu	a5,1(s0)
    40000604:	fc0794e3          	bnez	a5,400005cc <print+0x68>
    40000608:	00090663          	beqz	s2,40000614 <print+0xb0>
    4000060c:	00093783          	ld	a5,0(s2)
    40000610:	00078023          	sb	zero,0(a5)
    40000614:	06813083          	ld	ra,104(sp)
    40000618:	06013403          	ld	s0,96(sp)
    4000061c:	000b8513          	mv	a0,s7
    40000620:	05813483          	ld	s1,88(sp)
    40000624:	05013903          	ld	s2,80(sp)
    40000628:	04813983          	ld	s3,72(sp)
    4000062c:	04013a03          	ld	s4,64(sp)
    40000630:	03813a83          	ld	s5,56(sp)
    40000634:	03013b03          	ld	s6,48(sp)
    40000638:	02813b83          	ld	s7,40(sp)
    4000063c:	02013c03          	ld	s8,32(sp)
    40000640:	01813c83          	ld	s9,24(sp)
    40000644:	01013d03          	ld	s10,16(sp)
    40000648:	07010113          	addi	sp,sp,112
    4000064c:	00008067          	ret
    40000650:	0014c503          	lbu	a0,1(s1)
    40000654:	fa050ae3          	beqz	a0,40000608 <print+0xa4>
    40000658:	01851a63          	bne	a0,s8,4000066c <print+0x108>
    4000065c:	00248493          	addi	s1,s1,2
    40000660:	f80914e3          	bnez	s2,400005e8 <print+0x84>
    40000664:	bc1ff0ef          	jal	ra,40000224 <DebugPutch>
    40000668:	f95ff06f          	j	400005fc <print+0x98>
    4000066c:	00000793          	li	a5,0
    40000670:	0b550263          	beq	a0,s5,40000714 <print+0x1b0>
    40000674:	01a51a63          	bne	a0,s10,40000688 <print+0x124>
    40000678:	00140413          	addi	s0,s0,1
    4000067c:	00044503          	lbu	a0,0(s0)
    40000680:	0027e793          	ori	a5,a5,2
    40000684:	ffa50ae3          	beq	a0,s10,40000678 <print+0x114>
    40000688:	fd05059b          	addiw	a1,a0,-48
    4000068c:	0ff5f713          	andi	a4,a1,255
    40000690:	00000613          	li	a2,0
    40000694:	02ece463          	bltu	s9,a4,400006bc <print+0x158>
    40000698:	00140413          	addi	s0,s0,1
    4000069c:	0026171b          	slliw	a4,a2,0x2
    400006a0:	00044503          	lbu	a0,0(s0)
    400006a4:	00c7073b          	addw	a4,a4,a2
    400006a8:	0017171b          	slliw	a4,a4,0x1
    400006ac:	00e5863b          	addw	a2,a1,a4
    400006b0:	fd05059b          	addiw	a1,a0,-48
    400006b4:	0ff5f713          	andi	a4,a1,255
    400006b8:	feecf0e3          	bleu	a4,s9,40000698 <print+0x134>
    400006bc:	00140493          	addi	s1,s0,1
    400006c0:	07450263          	beq	a0,s4,40000724 <print+0x1c0>
    400006c4:	06400713          	li	a4,100
    400006c8:	06e50e63          	beq	a0,a4,40000744 <print+0x1e0>
    400006cc:	07800713          	li	a4,120
    400006d0:	08e50e63          	beq	a0,a4,4000076c <print+0x208>
    400006d4:	05800713          	li	a4,88
    400006d8:	0ae50e63          	beq	a0,a4,40000794 <print+0x230>
    400006dc:	07500713          	li	a4,117
    400006e0:	0ce50063          	beq	a0,a4,400007a0 <print+0x23c>
    400006e4:	06300713          	li	a4,99
    400006e8:	f0e51ce3          	bne	a0,a4,40000600 <print+0x9c>
    400006ec:	0009a703          	lw	a4,0(s3)
    400006f0:	00078693          	mv	a3,a5
    400006f4:	00810593          	addi	a1,sp,8
    400006f8:	00090513          	mv	a0,s2
    400006fc:	00e10423          	sb	a4,8(sp)
    40000700:	000104a3          	sb	zero,9(sp)
    40000704:	b7dff0ef          	jal	ra,40000280 <prints>
    40000708:	00898993          	addi	s3,s3,8
    4000070c:	01750bbb          	addw	s7,a0,s7
    40000710:	ef1ff06f          	j	40000600 <print+0x9c>
    40000714:	0024c503          	lbu	a0,2(s1)
    40000718:	00248413          	addi	s0,s1,2
    4000071c:	00100793          	li	a5,1
    40000720:	f55ff06f          	j	40000674 <print+0x110>
    40000724:	0009b583          	ld	a1,0(s3)
    40000728:	00898993          	addi	s3,s3,8
    4000072c:	08058463          	beqz	a1,400007b4 <print+0x250>
    40000730:	00078693          	mv	a3,a5
    40000734:	00090513          	mv	a0,s2
    40000738:	b49ff0ef          	jal	ra,40000280 <prints>
    4000073c:	01750bbb          	addw	s7,a0,s7
    40000740:	ec1ff06f          	j	40000600 <print+0x9c>
    40000744:	0009a583          	lw	a1,0(s3)
    40000748:	06100813          	li	a6,97
    4000074c:	00060713          	mv	a4,a2
    40000750:	00100693          	li	a3,1
    40000754:	00a00613          	li	a2,10
    40000758:	00090513          	mv	a0,s2
    4000075c:	cc9ff0ef          	jal	ra,40000424 <printi>
    40000760:	00898993          	addi	s3,s3,8
    40000764:	01750bbb          	addw	s7,a0,s7
    40000768:	e99ff06f          	j	40000600 <print+0x9c>
    4000076c:	0009a583          	lw	a1,0(s3)
    40000770:	06100813          	li	a6,97
    40000774:	00060713          	mv	a4,a2
    40000778:	00000693          	li	a3,0
    4000077c:	01000613          	li	a2,16
    40000780:	00090513          	mv	a0,s2
    40000784:	ca1ff0ef          	jal	ra,40000424 <printi>
    40000788:	00898993          	addi	s3,s3,8
    4000078c:	01750bbb          	addw	s7,a0,s7
    40000790:	e71ff06f          	j	40000600 <print+0x9c>
    40000794:	0009a583          	lw	a1,0(s3)
    40000798:	04100813          	li	a6,65
    4000079c:	fd9ff06f          	j	40000774 <print+0x210>
    400007a0:	0009a583          	lw	a1,0(s3)
    400007a4:	06100813          	li	a6,97
    400007a8:	00060713          	mv	a4,a2
    400007ac:	00000693          	li	a3,0
    400007b0:	fa5ff06f          	j	40000754 <print+0x1f0>
    400007b4:	000b0593          	mv	a1,s6
    400007b8:	f79ff06f          	j	40000730 <print+0x1cc>
    400007bc:	00000b93          	li	s7,0
    400007c0:	e49ff06f          	j	40000608 <print+0xa4>

00000000400007c4 <_dprintf>:
    400007c4:	fa010113          	addi	sp,sp,-96
    400007c8:	02810313          	addi	t1,sp,40
    400007cc:	02b13423          	sd	a1,40(sp)
    400007d0:	02c13823          	sd	a2,48(sp)
    400007d4:	00050593          	mv	a1,a0
    400007d8:	00030613          	mv	a2,t1
    400007dc:	00000513          	li	a0,0
    400007e0:	00113c23          	sd	ra,24(sp)
    400007e4:	02d13c23          	sd	a3,56(sp)
    400007e8:	04e13023          	sd	a4,64(sp)
    400007ec:	04f13423          	sd	a5,72(sp)
    400007f0:	05013823          	sd	a6,80(sp)
    400007f4:	05113c23          	sd	a7,88(sp)
    400007f8:	00613423          	sd	t1,8(sp)
    400007fc:	d69ff0ef          	jal	ra,40000564 <print>
    40000800:	01813083          	ld	ra,24(sp)
    40000804:	06010113          	addi	sp,sp,96
    40000808:	00008067          	ret

Disassembly of section .text.start:

000000004000080c <bl1start>:
    4000080c:	9f5ff0ef          	jal	ra,40000200 <bl1main>
    40000810:	00000993          	li	s3,0
    40000814:	00050993          	mv	s3,a0
    40000818:	00098067          	jr	s3

000000004000081c <stop_and_go>:
    4000081c:	0000006f          	j	4000081c <stop_and_go>

Disassembly of section .text.hang:

0000000040000820 <_hang>:
    40000820:	f1402573          	csrr	a0,mhartid
    40000824:	10500073          	wfi
    40000828:	ffdff06f          	j	40000824 <_hang+0x4>

Disassembly of section .rodata:

0000000040000830 <__bss_base-0x18>:
    40000830:	4c42                	lw	s8,16(sp)
    40000832:	2d31                	addiw	s10,s10,12
    40000834:	4554                	lw	a3,12(a0)
    40000836:	47205453          	0x47205453
    4000083a:	0a646f6f          	jal	t5,400468e0 <__bss_base+0x46098>
    4000083e:	0000                	unimp
    40000840:	6e28                	ld	a0,88(a2)
    40000842:	6c75                	lui	s8,0x1d
    40000844:	296c                	fld	fa1,208(a0)
	...

Disassembly of section .comment:

0000000000000000 <.comment>:
   0:	3a434347          	fmsub.d	ft6,ft6,ft4,ft7,rmm
   4:	2820                	fld	fs0,80(s0)
   6:	29554e47          	fmsub.s	ft8,fa0,fs5,ft5,rmm
   a:	3720                	fld	fs0,104(a4)
   c:	322e                	fld	ft4,232(sp)
   e:	302e                	fld	ft0,232(sp)
	...
